target datalayout = "e-m:e-p270:32:32-p271:32:32-p272:64:64-i64:64-i128:128-f80:128-n8:16:32:64-S128"
target triple = "x86_64-pc-linux-gnu"

%struct._lv_iter_t = type { ptr, i32, ptr, i32, ptr, i32, ptr }

; Function Attrs: nounwind uwtable
define i32 @lv_iter_next(ptr noundef %0, ptr noundef %1) #0 {
  %3 = alloca i32, align 4
  %4 = alloca ptr, align 8
  %5 = alloca ptr, align 8
  %6 = alloca ptr, align 8
  %7 = alloca i32, align 4
  %8 = alloca i32, align 4
  store ptr %0, ptr %4, align 8, !tbaa !3
  store ptr %1, ptr %5, align 8, !tbaa !3
  br label %9

9:                                                ; preds = %2
  %10 = load ptr, ptr %4, align 8, !tbaa !3
  %11 = icmp ne ptr %10, null
  br i1 %11, label %16, label %12

12:                                               ; preds = %9
  br label %13

13:                                               ; preds = %12
  br label %14

14:                                               ; preds = %13
  br label %15

15:                                               ; preds = %14, %15
  br label %15

16:                                               ; preds = %9
  br label %17

17:                                               ; preds = %16
  %18 = load ptr, ptr %4, align 8, !tbaa !3
  %19 = icmp eq ptr %18, null
  br i1 %19, label %20, label %21

20:                                               ; preds = %17
  store i32 0, ptr %3, align 4
  br label %68

21:                                               ; preds = %17
  call void @llvm.lifetime.start.p0(i64 8, ptr %6) #3
  %22 = load ptr, ptr %4, align 8, !tbaa !3
  %23 = getelementptr inbounds nuw %struct._lv_iter_t, ptr %22, i32 0, i32 4
  %24 = load ptr, ptr %23, align 8, !tbaa !15
  store ptr %24, ptr %6, align 8, !tbaa !3
  %25 = load ptr, ptr %6, align 8, !tbaa !3
  %26 = icmp ne ptr %25, null
  br i1 %26, label %27, label %43

27:                                               ; preds = %21
  %28 = load ptr, ptr %6, align 8, !tbaa !3
  %29 = call zeroext i1 @lv_circle_buf_is_empty(ptr noundef %28)
  br i1 %29, label %43, label %30

30:                                               ; preds = %27
  %31 = load ptr, ptr %5, align 8, !tbaa !3
  %32 = icmp ne ptr %31, null
  br i1 %32, label %33, label %37

33:                                               ; preds = %30
  %34 = load ptr, ptr %6, align 8, !tbaa !3
  %35 = load ptr, ptr %5, align 8, !tbaa !3
  %36 = call i32 @lv_circle_buf_read(ptr noundef %34, ptr noundef %35)
  br label %40

37:                                               ; preds = %30
  %38 = load ptr, ptr %6, align 8, !tbaa !3
  %39 = call i32 @lv_circle_buf_skip(ptr noundef %38)
  br label %40

40:                                               ; preds = %37, %33
  %41 = load ptr, ptr %4, align 8, !tbaa !3
  %42 = getelementptr inbounds nuw %struct._lv_iter_t, ptr %41, i32 0, i32 5
  store i32 0, ptr %42, align 8, !tbaa !16
  store i32 1, ptr %3, align 4
  store i32 1, ptr %7, align 4
  br label %67

43:                                               ; preds = %27, %21
  call void @llvm.lifetime.start.p0(i64 4, ptr %8) #3
  %44 = load ptr, ptr %4, align 8, !tbaa !3
  %45 = getelementptr inbounds nuw %struct._lv_iter_t, ptr %44, i32 0, i32 6
  %46 = load ptr, ptr %45, align 8, !tbaa !13
  %47 = load ptr, ptr %4, align 8, !tbaa !3
  %48 = getelementptr inbounds nuw %struct._lv_iter_t, ptr %47, i32 0, i32 0
  %49 = load ptr, ptr %48, align 8, !tbaa !9
  %50 = load ptr, ptr %4, align 8, !tbaa !3
  %51 = getelementptr inbounds nuw %struct._lv_iter_t, ptr %50, i32 0, i32 2
  %52 = load ptr, ptr %51, align 8, !tbaa !14
  %53 = load ptr, ptr %5, align 8, !tbaa !3
  %54 = call i32 %46(ptr noundef %49, ptr noundef %52, ptr noundef %53)
  store i32 %54, ptr %8, align 4, !tbaa !7
  %55 = load i32, ptr %8, align 4, !tbaa !7
  %56 = icmp eq i32 %55, 0
  br i1 %56, label %57, label %58

57:                                               ; preds = %43
  store i32 0, ptr %3, align 4
  store i32 1, ptr %7, align 4
  br label %66

58:                                               ; preds = %43
  %59 = load ptr, ptr %6, align 8, !tbaa !3
  %60 = icmp ne ptr %59, null
  br i1 %60, label %61, label %64

61:                                               ; preds = %58
  %62 = load ptr, ptr %4, align 8, !tbaa !3
  %63 = getelementptr inbounds nuw %struct._lv_iter_t, ptr %62, i32 0, i32 5
  store i32 0, ptr %63, align 8, !tbaa !16
  br label %64

64:                                               ; preds = %61, %58
  %65 = load i32, ptr %8, align 4, !tbaa !7
  store i32 %65, ptr %3, align 4
  store i32 1, ptr %7, align 4
  br label %66

66:                                               ; preds = %64, %57
  call void @llvm.lifetime.end.p0(i64 4, ptr %8) #3
  br label %67

67:                                               ; preds = %66, %40
  call void @llvm.lifetime.end.p0(i64 8, ptr %6) #3
  br label %68

68:                                               ; preds = %67, %20
  %69 = load i32, ptr %3, align 4
  ret i32 %69
}