; Function Attrs: nounwind uwtable
define i32 @lv_iter_next(ptr noundef %0, ptr noundef %1) local_unnamed_addr #0 {
  %.not = icmp eq ptr %0, null
  br i1 %.not, label %.preheader, label %3

.preheader:                                       ; preds = %2, %.preheader
  br label %.preheader

3:                                                ; preds = %2
  %4 = getelementptr inbounds nuw i8, ptr %0, i64 32
  %5 = load ptr, ptr %4, align 8, !tbaa !13
  %.not22 = icmp eq ptr %5, null
  br i1 %.not22, label %13, label %6

6:                                                ; preds = %3
  %7 = tail call zeroext i1 @lv_circle_buf_is_empty(ptr noundef nonnull %5) #4
  br i1 %7, label %13, label %8

8:                                                ; preds = %6
  %.not23 = icmp eq ptr %1, null
  br i1 %.not23, label %11, label %9

9:                                                ; preds = %8
  %10 = tail call i32 @lv_circle_buf_read(ptr noundef nonnull %5, ptr noundef nonnull %1) #4
  br label %.sink.split

11:                                               ; preds = %8
  %12 = tail call i32 @lv_circle_buf_skip(ptr noundef nonnull %5) #4
  br label %.sink.split

13:                                               ; preds = %6, %3
  %14 = getelementptr inbounds nuw i8, ptr %0, i64 48
  %15 = load ptr, ptr %14, align 8, !tbaa !11
  %16 = load ptr, ptr %0, align 8, !tbaa !3
  %17 = getelementptr inbounds nuw i8, ptr %0, i64 16
  %18 = load ptr, ptr %17, align 8, !tbaa !12
  %19 = tail call i32 %15(ptr noundef %16, ptr noundef %18, ptr noundef %1) #4
  %20 = icmp eq i32 %19, 0
  %brmerge = or i1 %.not22, %20
  br i1 %brmerge, label %22, label %.sink.split

.sink.split:                                      ; preds = %13, %9, %11
  %.1.ph = phi i32 [ 1, %11 ], [ 1, %9 ], [ %19, %13 ]
  %21 = getelementptr inbounds nuw i8, ptr %0, i64 40
  store i32 0, ptr %21, align 8, !tbaa !14
  br label %22

22:                                               ; preds = %.sink.split, %13
  %.1 = phi i32 [ %19, %13 ], [ %.1.ph, %.sink.split ]
  ret i32 %.1
}